; Function Attrs: mustprogress uwtable
define hidden void @_ZNK4cvc58internal9BitVector15toSignedIntegerEv(ptr dead_on_unwind noalias writable sret(%"class.cvc5::internal::Integer") align 8 %0, ptr noundef nonnull align 8 dereferenceable(24) %1) local_unnamed_addr #3 align 2 personality ptr @__gxx_personality_v0 {
  %3 = alloca %"class.cvc5::internal::Integer", align 8
  %4 = alloca %"class.cvc5::internal::Integer", align 8
  %5 = alloca %"class.cvc5::internal::Integer", align 8
  %6 = alloca %"class.cvc5::internal::Integer", align 8
  %7 = alloca %"class.cvc5::internal::Integer", align 8
  %8 = load i32, ptr %1, align 8, !tbaa !11
  call void @llvm.lifetime.start.p0(i64 16, ptr nonnull %3) #16
  %9 = getelementptr inbounds nuw i8, ptr %1, i64 8
  %10 = add i32 %8, -1
  call void @_ZNK4cvc58internal7Integer15extractBitRangeEjj(ptr dead_on_unwind nonnull writable sret(%"class.cvc5::internal::Integer") align 8 %3, ptr noundef nonnull align 8 dereferenceable(16) %9, i32 noundef 1, i32 noundef %10)
  call void @llvm.lifetime.start.p0(i64 16, ptr nonnull %4) #16
  invoke void @_ZNK4cvc58internal7Integer15extractBitRangeEjj(ptr dead_on_unwind nonnull writable sret(%"class.cvc5::internal::Integer") align 8 %4, ptr noundef nonnull align 8 dereferenceable(16) %9, i32 noundef %10, i32 noundef 0)
          to label %11 unwind label %34

11:                                               ; preds = %2
  call void @llvm.lifetime.start.p0(i64 16, ptr nonnull %5) #16
  call void @llvm.lifetime.start.p0(i64 16, ptr nonnull %6) #16
  invoke void @__gmpz_init_set_ui(ptr noundef nonnull align 8 dereferenceable(16) %6, i64 noundef 1)
          to label %12 unwind label %36

12:                                               ; preds = %11
  %13 = getelementptr inbounds nuw i8, ptr %6, i64 4
  %14 = load i32, ptr %13, align 4, !tbaa !16
  %15 = sub nsw i32 0, %14
  store i32 %15, ptr %13, align 4, !tbaa !16
  call void @llvm.lifetime.start.p0(i64 16, ptr nonnull %7) #16
  invoke void @_ZNK4cvc58internal7Integer14multiplyByPow2Ej(ptr dead_on_unwind nonnull writable sret(%"class.cvc5::internal::Integer") align 8 %7, ptr noundef nonnull align 8 dereferenceable(16) %3, i32 noundef %10)
          to label %16 unwind label %38

16:                                               ; preds = %12
  invoke void @_ZNK4cvc58internal7IntegermlERKS1_(ptr dead_on_unwind nonnull writable sret(%"class.cvc5::internal::Integer") align 8 %5, ptr noundef nonnull align 8 dereferenceable(16) %6, ptr noundef nonnull align 8 dereferenceable(16) %7)
          to label %17 unwind label %40

17:                                               ; preds = %16
  invoke void @_ZNK4cvc58internal7IntegerplERKS1_(ptr dead_on_unwind writable sret(%"class.cvc5::internal::Integer") align 8 %0, ptr noundef nonnull align 8 dereferenceable(16) %5, ptr noundef nonnull align 8 dereferenceable(16) %4)
          to label %18 unwind label %42

18:                                               ; preds = %17
  invoke void @__gmpz_clear(ptr noundef nonnull align 8 dereferenceable(16) %5)
          to label %_ZN4cvc58internal7IntegerD2Ev.exit unwind label %19

19:                                               ; preds = %18
  %20 = landingpad { ptr, i32 }
          catch ptr null
  %21 = extractvalue { ptr, i32 } %20, 0
  call void @__clang_call_terminate(ptr %21) #17
  unreachable

_ZN4cvc58internal7IntegerD2Ev.exit:               ; preds = %18
  invoke void @__gmpz_clear(ptr noundef nonnull align 8 dereferenceable(16) %7)
          to label %_ZN4cvc58internal7IntegerD2Ev.exit14 unwind label %22

22:                                               ; preds = %_ZN4cvc58internal7IntegerD2Ev.exit
  %23 = landingpad { ptr, i32 }
          catch ptr null
  %24 = extractvalue { ptr, i32 } %23, 0
  call void @__clang_call_terminate(ptr %24) #17
  unreachable

_ZN4cvc58internal7IntegerD2Ev.exit14:             ; preds = %_ZN4cvc58internal7IntegerD2Ev.exit
  call void @llvm.lifetime.end.p0(i64 16, ptr nonnull %7) #16
  invoke void @__gmpz_clear(ptr noundef nonnull align 8 dereferenceable(16) %6)
          to label %_ZN4cvc58internal7IntegerD2Ev.exit15 unwind label %25

25:                                               ; preds = %_ZN4cvc58internal7IntegerD2Ev.exit14
  %26 = landingpad { ptr, i32 }
          catch ptr null
  %27 = extractvalue { ptr, i32 } %26, 0
  call void @__clang_call_terminate(ptr %27) #17
  unreachable

_ZN4cvc58internal7IntegerD2Ev.exit15:             ; preds = %_ZN4cvc58internal7IntegerD2Ev.exit14
  call void @llvm.lifetime.end.p0(i64 16, ptr nonnull %6) #16
  call void @llvm.lifetime.end.p0(i64 16, ptr nonnull %5) #16
  invoke void @__gmpz_clear(ptr noundef nonnull align 8 dereferenceable(16) %4)
          to label %_ZN4cvc58internal7IntegerD2Ev.exit16 unwind label %28

28:                                               ; preds = %_ZN4cvc58internal7IntegerD2Ev.exit15
  %29 = landingpad { ptr, i32 }
          catch ptr null
  %30 = extractvalue { ptr, i32 } %29, 0
  call void @__clang_call_terminate(ptr %30) #17
  unreachable

_ZN4cvc58internal7IntegerD2Ev.exit16:             ; preds = %_ZN4cvc58internal7IntegerD2Ev.exit15
  call void @llvm.lifetime.end.p0(i64 16, ptr nonnull %4) #16
  invoke void @__gmpz_clear(ptr noundef nonnull align 8 dereferenceable(16) %3)
          to label %_ZN4cvc58internal7IntegerD2Ev.exit17 unwind label %31

31:                                               ; preds = %_ZN4cvc58internal7IntegerD2Ev.exit16
  %32 = landingpad { ptr, i32 }
          catch ptr null
  %33 = extractvalue { ptr, i32 } %32, 0
  call void @__clang_call_terminate(ptr %33) #17
  unreachable

_ZN4cvc58internal7IntegerD2Ev.exit17:             ; preds = %_ZN4cvc58internal7IntegerD2Ev.exit16
  call void @llvm.lifetime.end.p0(i64 16, ptr nonnull %3) #16
  ret void

34:                                               ; preds = %2
  %35 = landingpad { ptr, i32 }
          cleanup
  br label %_ZN4cvc58internal7IntegerD2Ev.exit21

36:                                               ; preds = %11
  %37 = landingpad { ptr, i32 }
          cleanup
  br label %_ZN4cvc58internal7IntegerD2Ev.exit20

38:                                               ; preds = %12
  %39 = landingpad { ptr, i32 }
          cleanup
  br label %_ZN4cvc58internal7IntegerD2Ev.exit19

40:                                               ; preds = %16
  %41 = landingpad { ptr, i32 }
          cleanup
  br label %_ZN4cvc58internal7IntegerD2Ev.exit18

42:                                               ; preds = %17
  %43 = landingpad { ptr, i32 }
          cleanup
  invoke void @__gmpz_clear(ptr noundef nonnull align 8 dereferenceable(16) %5)
          to label %_ZN4cvc58internal7IntegerD2Ev.exit18 unwind label %44

44:                                               ; preds = %42
  %45 = landingpad { ptr, i32 }
          catch ptr null
  %46 = extractvalue { ptr, i32 } %45, 0
  call void @__clang_call_terminate(ptr %46) #17
  unreachable

_ZN4cvc58internal7IntegerD2Ev.exit18:             ; preds = %42, %40
  %.pn = phi { ptr, i32 } [ %41, %40 ], [ %43, %42 ]
  invoke void @__gmpz_clear(ptr noundef nonnull align 8 dereferenceable(16) %7)
          to label %_ZN4cvc58internal7IntegerD2Ev.exit19 unwind label %47

47:                                               ; preds = %_ZN4cvc58internal7IntegerD2Ev.exit18
  %48 = landingpad { ptr, i32 }
          catch ptr null
  %49 = extractvalue { ptr, i32 } %48, 0
  call void @__clang_call_terminate(ptr %49) #17
  unreachable

_ZN4cvc58internal7IntegerD2Ev.exit19:             ; preds = %_ZN4cvc58internal7IntegerD2Ev.exit18, %38
  %.pn.pn = phi { ptr, i32 } [ %39, %38 ], [ %.pn, %_ZN4cvc58internal7IntegerD2Ev.exit18 ]
  call void @llvm.lifetime.end.p0(i64 16, ptr nonnull %7) #16
  invoke void @__gmpz_clear(ptr noundef nonnull align 8 dereferenceable(16) %6)
          to label %_ZN4cvc58internal7IntegerD2Ev.exit20 unwind label %50

50:                                               ; preds = %_ZN4cvc58internal7IntegerD2Ev.exit19
  %51 = landingpad { ptr, i32 }
          catch ptr null
  %52 = extractvalue { ptr, i32 } %51, 0
  call void @__clang_call_terminate(ptr %52) #17
  unreachable

_ZN4cvc58internal7IntegerD2Ev.exit20:             ; preds = %_ZN4cvc58internal7IntegerD2Ev.exit19, %36
  %.pn.pn.pn = phi { ptr, i32 } [ %37, %36 ], [ %.pn.pn, %_ZN4cvc58internal7IntegerD2Ev.exit19 ]
  call void @llvm.lifetime.end.p0(i64 16, ptr nonnull %6) #16
  call void @llvm.lifetime.end.p0(i64 16, ptr nonnull %5) #16
  invoke void @__gmpz_clear(ptr noundef nonnull align 8 dereferenceable(16) %4)
          to label %_ZN4cvc58internal7IntegerD2Ev.exit21 unwind label %53

53:                                               ; preds = %_ZN4cvc58internal7IntegerD2Ev.exit20
  %54 = landingpad { ptr, i32 }
          catch ptr null
  %55 = extractvalue { ptr, i32 } %54, 0
  call void @__clang_call_terminate(ptr %55) #17
  unreachable

_ZN4cvc58internal7IntegerD2Ev.exit21:             ; preds = %_ZN4cvc58internal7IntegerD2Ev.exit20, %34
  %.pn.pn.pn.pn = phi { ptr, i32 } [ %35, %34 ], [ %.pn.pn.pn, %_ZN4cvc58internal7IntegerD2Ev.exit20 ]
  call void @llvm.lifetime.end.p0(i64 16, ptr nonnull %4) #16
  invoke void @__gmpz_clear(ptr noundef nonnull align 8 dereferenceable(16) %3)
          to label %_ZN4cvc58internal7IntegerD2Ev.exit22 unwind label %56

56:                                               ; preds = %_ZN4cvc58internal7IntegerD2Ev.exit21
  %57 = landingpad { ptr, i32 }
          catch ptr null
  %58 = extractvalue { ptr, i32 } %57, 0
  call void @__clang_call_terminate(ptr %58) #17
  unreachable

_ZN4cvc58internal7IntegerD2Ev.exit22:             ; preds = %_ZN4cvc58internal7IntegerD2Ev.exit21
  call void @llvm.lifetime.end.p0(i64 16, ptr nonnull %3) #16
  resume { ptr, i32 } %.pn.pn.pn.pn
}